
classic_aa9e979fd5c597526ef30c003bffee474b314e22:     ファイル形式 elf64-x86-64


セクション .init の逆アセンブル:

00000000004004e8 <_init>:
  4004e8:	48 83 ec 08          	sub    rsp,0x8
  4004ec:	48 8b 05 05 0b 20 00 	mov    rax,QWORD PTR [rip+0x200b05]        # 600ff8 <_DYNAMIC+0x1d0>
  4004f3:	48 85 c0             	test   rax,rax
  4004f6:	74 05                	je     4004fd <_init+0x15>
  4004f8:	e8 73 00 00 00       	call   400570 <gets@plt+0x10>
  4004fd:	48 83 c4 08          	add    rsp,0x8
  400501:	c3                   	ret    

セクション .plt の逆アセンブル:

0000000000400510 <puts@plt-0x10>:
  400510:	ff 35 f2 0a 20 00    	push   QWORD PTR [rip+0x200af2]        # 601008 <_GLOBAL_OFFSET_TABLE_+0x8>
  400516:	ff 25 f4 0a 20 00    	jmp    QWORD PTR [rip+0x200af4]        # 601010 <_GLOBAL_OFFSET_TABLE_+0x10>
  40051c:	0f 1f 40 00          	nop    DWORD PTR [rax+0x0]

0000000000400520 <puts@plt>:
  400520:	ff 25 f2 0a 20 00    	jmp    QWORD PTR [rip+0x200af2]        # 601018 <_GLOBAL_OFFSET_TABLE_+0x18>
  400526:	68 00 00 00 00       	push   0x0
  40052b:	e9 e0 ff ff ff       	jmp    400510 <_init+0x28>

0000000000400530 <setbuf@plt>:
  400530:	ff 25 ea 0a 20 00    	jmp    QWORD PTR [rip+0x200aea]        # 601020 <_GLOBAL_OFFSET_TABLE_+0x20>
  400536:	68 01 00 00 00       	push   0x1
  40053b:	e9 d0 ff ff ff       	jmp    400510 <_init+0x28>

0000000000400540 <printf@plt>:
  400540:	ff 25 e2 0a 20 00    	jmp    QWORD PTR [rip+0x200ae2]        # 601028 <_GLOBAL_OFFSET_TABLE_+0x28>
  400546:	68 02 00 00 00       	push   0x2
  40054b:	e9 c0 ff ff ff       	jmp    400510 <_init+0x28>

0000000000400550 <__libc_start_main@plt>:
  400550:	ff 25 da 0a 20 00    	jmp    QWORD PTR [rip+0x200ada]        # 601030 <_GLOBAL_OFFSET_TABLE_+0x30>
  400556:	68 03 00 00 00       	push   0x3
  40055b:	e9 b0 ff ff ff       	jmp    400510 <_init+0x28>

0000000000400560 <gets@plt>:
  400560:	ff 25 d2 0a 20 00    	jmp    QWORD PTR [rip+0x200ad2]        # 601038 <_GLOBAL_OFFSET_TABLE_+0x38>
  400566:	68 04 00 00 00       	push   0x4
  40056b:	e9 a0 ff ff ff       	jmp    400510 <_init+0x28>

セクション .plt.got の逆アセンブル:

0000000000400570 <.plt.got>:
  400570:	ff 25 82 0a 20 00    	jmp    QWORD PTR [rip+0x200a82]        # 600ff8 <_DYNAMIC+0x1d0>
  400576:	66 90                	xchg   ax,ax

セクション .text の逆アセンブル:

0000000000400580 <_start>:
  400580:	31 ed                	xor    ebp,ebp
  400582:	49 89 d1             	mov    r9,rdx
  400585:	5e                   	pop    rsi
  400586:	48 89 e2             	mov    rdx,rsp
  400589:	48 83 e4 f0          	and    rsp,0xfffffffffffffff0
  40058d:	50                   	push   rax
  40058e:	54                   	push   rsp
  40058f:	49 c7 c0 60 07 40 00 	mov    r8,0x400760
  400596:	48 c7 c1 f0 06 40 00 	mov    rcx,0x4006f0
  40059d:	48 c7 c7 a9 06 40 00 	mov    rdi,0x4006a9
  4005a4:	e8 a7 ff ff ff       	call   400550 <__libc_start_main@plt>
  4005a9:	f4                   	hlt    
  4005aa:	66 0f 1f 44 00 00    	nop    WORD PTR [rax+rax*1+0x0]

00000000004005b0 <deregister_tm_clones>:
  4005b0:	b8 57 10 60 00       	mov    eax,0x601057
  4005b5:	55                   	push   rbp
  4005b6:	48 2d 50 10 60 00    	sub    rax,0x601050
  4005bc:	48 83 f8 0e          	cmp    rax,0xe
  4005c0:	48 89 e5             	mov    rbp,rsp
  4005c3:	76 1b                	jbe    4005e0 <deregister_tm_clones+0x30>
  4005c5:	b8 00 00 00 00       	mov    eax,0x0
  4005ca:	48 85 c0             	test   rax,rax
  4005cd:	74 11                	je     4005e0 <deregister_tm_clones+0x30>
  4005cf:	5d                   	pop    rbp
  4005d0:	bf 50 10 60 00       	mov    edi,0x601050
  4005d5:	ff e0                	jmp    rax
  4005d7:	66 0f 1f 84 00 00 00 	nop    WORD PTR [rax+rax*1+0x0]
  4005de:	00 00 
  4005e0:	5d                   	pop    rbp
  4005e1:	c3                   	ret    
  4005e2:	0f 1f 40 00          	nop    DWORD PTR [rax+0x0]
  4005e6:	66 2e 0f 1f 84 00 00 	nop    WORD PTR cs:[rax+rax*1+0x0]
  4005ed:	00 00 00 

00000000004005f0 <register_tm_clones>:
  4005f0:	be 50 10 60 00       	mov    esi,0x601050
  4005f5:	55                   	push   rbp
  4005f6:	48 81 ee 50 10 60 00 	sub    rsi,0x601050
  4005fd:	48 c1 fe 03          	sar    rsi,0x3
  400601:	48 89 e5             	mov    rbp,rsp
  400604:	48 89 f0             	mov    rax,rsi
  400607:	48 c1 e8 3f          	shr    rax,0x3f
  40060b:	48 01 c6             	add    rsi,rax
  40060e:	48 d1 fe             	sar    rsi,1
  400611:	74 15                	je     400628 <register_tm_clones+0x38>
  400613:	b8 00 00 00 00       	mov    eax,0x0
  400618:	48 85 c0             	test   rax,rax
  40061b:	74 0b                	je     400628 <register_tm_clones+0x38>
  40061d:	5d                   	pop    rbp
  40061e:	bf 50 10 60 00       	mov    edi,0x601050
  400623:	ff e0                	jmp    rax
  400625:	0f 1f 00             	nop    DWORD PTR [rax]
  400628:	5d                   	pop    rbp
  400629:	c3                   	ret    
  40062a:	66 0f 1f 44 00 00    	nop    WORD PTR [rax+rax*1+0x0]

0000000000400630 <__do_global_dtors_aux>:
  400630:	80 3d 51 0a 20 00 00 	cmp    BYTE PTR [rip+0x200a51],0x0        # 601088 <completed.7594>
  400637:	75 11                	jne    40064a <__do_global_dtors_aux+0x1a>
  400639:	55                   	push   rbp
  40063a:	48 89 e5             	mov    rbp,rsp
  40063d:	e8 6e ff ff ff       	call   4005b0 <deregister_tm_clones>
  400642:	5d                   	pop    rbp
  400643:	c6 05 3e 0a 20 00 01 	mov    BYTE PTR [rip+0x200a3e],0x1        # 601088 <completed.7594>
  40064a:	f3 c3                	repz ret 
  40064c:	0f 1f 40 00          	nop    DWORD PTR [rax+0x0]

0000000000400650 <frame_dummy>:
  400650:	bf 20 0e 60 00       	mov    edi,0x600e20
  400655:	48 83 3f 00          	cmp    QWORD PTR [rdi],0x0
  400659:	75 05                	jne    400660 <frame_dummy+0x10>
  40065b:	eb 93                	jmp    4005f0 <register_tm_clones>
  40065d:	0f 1f 00             	nop    DWORD PTR [rax]
  400660:	b8 00 00 00 00       	mov    eax,0x0
  400665:	48 85 c0             	test   rax,rax
  400668:	74 f1                	je     40065b <frame_dummy+0xb>
  40066a:	55                   	push   rbp
  40066b:	48 89 e5             	mov    rbp,rsp
  40066e:	ff d0                	call   rax
  400670:	5d                   	pop    rbp
  400671:	e9 7a ff ff ff       	jmp    4005f0 <register_tm_clones>

0000000000400676 <init>:
  400676:	55                   	push   rbp
  400677:	48 89 e5             	mov    rbp,rsp
  40067a:	48 8b 05 df 09 20 00 	mov    rax,QWORD PTR [rip+0x2009df]        # 601060 <stdout@@GLIBC_2.2.5>
  400681:	be 00 00 00 00       	mov    esi,0x0
  400686:	48 89 c7             	mov    rdi,rax
  400689:	e8 a2 fe ff ff       	call   400530 <setbuf@plt>
  40068e:	48 8b 05 eb 09 20 00 	mov    rax,QWORD PTR [rip+0x2009eb]        # 601080 <stderr@@GLIBC_2.2.5>
  400695:	be 00 00 00 00       	mov    esi,0x0
  40069a:	48 89 c7             	mov    rdi,rax
  40069d:	e8 8e fe ff ff       	call   400530 <setbuf@plt>
  4006a2:	b8 00 00 00 00       	mov    eax,0x0
  4006a7:	5d                   	pop    rbp
  4006a8:	c3                   	ret    

00000000004006a9 <main>:
  4006a9:	55                   	push   rbp
  4006aa:	48 89 e5             	mov    rbp,rsp
  4006ad:	48 83 ec 40          	sub    rsp,0x40
  4006b1:	bf 74 07 40 00       	mov    edi,0x400774
  4006b6:	e8 65 fe ff ff       	call   400520 <puts@plt>
  4006bb:	bf 8e 07 40 00       	mov    edi,0x40078e
  4006c0:	b8 00 00 00 00       	mov    eax,0x0
  4006c5:	e8 76 fe ff ff       	call   400540 <printf@plt>
  4006ca:	48 8d 45 c0          	lea    rax,[rbp-0x40]
  4006ce:	48 89 c7             	mov    rdi,rax
  4006d1:	e8 8a fe ff ff       	call   400560 <gets@plt>
  4006d6:	bf 9f 07 40 00       	mov    edi,0x40079f
  4006db:	e8 40 fe ff ff       	call   400520 <puts@plt>
  4006e0:	b8 00 00 00 00       	mov    eax,0x0
  4006e5:	c9                   	leave  
  4006e6:	c3                   	ret    
  4006e7:	66 0f 1f 84 00 00 00 	nop    WORD PTR [rax+rax*1+0x0]
  4006ee:	00 00 

00000000004006f0 <__libc_csu_init>:
  4006f0:	41 57                	push   r15
  4006f2:	41 56                	push   r14
  4006f4:	41 89 ff             	mov    r15d,edi
  4006f7:	41 55                	push   r13
  4006f9:	41 54                	push   r12
  4006fb:	4c 8d 25 06 07 20 00 	lea    r12,[rip+0x200706]        # 600e08 <__frame_dummy_init_array_entry>
  400702:	55                   	push   rbp
  400703:	48 8d 2d 0e 07 20 00 	lea    rbp,[rip+0x20070e]        # 600e18 <__init_array_end>
  40070a:	53                   	push   rbx
  40070b:	49 89 f6             	mov    r14,rsi
  40070e:	49 89 d5             	mov    r13,rdx
  400711:	4c 29 e5             	sub    rbp,r12
  400714:	48 83 ec 08          	sub    rsp,0x8
  400718:	48 c1 fd 03          	sar    rbp,0x3
  40071c:	e8 c7 fd ff ff       	call   4004e8 <_init>
  400721:	48 85 ed             	test   rbp,rbp
  400724:	74 20                	je     400746 <__libc_csu_init+0x56>
  400726:	31 db                	xor    ebx,ebx
  400728:	0f 1f 84 00 00 00 00 	nop    DWORD PTR [rax+rax*1+0x0]
  40072f:	00 
  400730:	4c 89 ea             	mov    rdx,r13
  400733:	4c 89 f6             	mov    rsi,r14
  400736:	44 89 ff             	mov    edi,r15d
  400739:	41 ff 14 dc          	call   QWORD PTR [r12+rbx*8]
  40073d:	48 83 c3 01          	add    rbx,0x1
  400741:	48 39 eb             	cmp    rbx,rbp
  400744:	75 ea                	jne    400730 <__libc_csu_init+0x40>
  400746:	48 83 c4 08          	add    rsp,0x8
  40074a:	5b                   	pop    rbx
  40074b:	5d                   	pop    rbp
  40074c:	41 5c                	pop    r12
  40074e:	41 5d                	pop    r13
  400750:	41 5e                	pop    r14
  400752:	41 5f                	pop    r15
  400754:	c3                   	ret    
  400755:	90                   	nop
  400756:	66 2e 0f 1f 84 00 00 	nop    WORD PTR cs:[rax+rax*1+0x0]
  40075d:	00 00 00 

0000000000400760 <__libc_csu_fini>:
  400760:	f3 c3                	repz ret 

セクション .fini の逆アセンブル:

0000000000400764 <_fini>:
  400764:	48 83 ec 08          	sub    rsp,0x8
  400768:	48 83 c4 08          	add    rsp,0x8
  40076c:	c3                   	ret    
