
bard:     ファイル形式 elf64-x86-64


セクション .init の逆アセンブル:

0000000000400698 <.init>:
  400698:	48 83 ec 08          	sub    rsp,0x8
  40069c:	48 8b 05 55 19 20 00 	mov    rax,QWORD PTR [rip+0x201955]        # 601ff8 <exit@plt+0x201898>
  4006a3:	48 85 c0             	test   rax,rax
  4006a6:	74 02                	je     4006aa <putchar@plt-0x16>
  4006a8:	ff d0                	call   rax
  4006aa:	48 83 c4 08          	add    rsp,0x8
  4006ae:	c3                   	ret    

セクション .plt の逆アセンブル:

00000000004006b0 <putchar@plt-0x10>:
  4006b0:	ff 35 52 19 20 00    	push   QWORD PTR [rip+0x201952]        # 602008 <exit@plt+0x2018a8>
  4006b6:	ff 25 54 19 20 00    	jmp    QWORD PTR [rip+0x201954]        # 602010 <exit@plt+0x2018b0>
  4006bc:	0f 1f 40 00          	nop    DWORD PTR [rax+0x0]

00000000004006c0 <putchar@plt>:
  4006c0:	ff 25 52 19 20 00    	jmp    QWORD PTR [rip+0x201952]        # 602018 <exit@plt+0x2018b8>
  4006c6:	68 00 00 00 00       	push   0x0
  4006cb:	e9 e0 ff ff ff       	jmp    4006b0 <putchar@plt-0x10>

00000000004006d0 <puts@plt>:
  4006d0:	ff 25 4a 19 20 00    	jmp    QWORD PTR [rip+0x20194a]        # 602020 <exit@plt+0x2018c0>
  4006d6:	68 01 00 00 00       	push   0x1
  4006db:	e9 d0 ff ff ff       	jmp    4006b0 <putchar@plt-0x10>

00000000004006e0 <__stack_chk_fail@plt>:
  4006e0:	ff 25 42 19 20 00    	jmp    QWORD PTR [rip+0x201942]        # 602028 <exit@plt+0x2018c8>
  4006e6:	68 02 00 00 00       	push   0x2
  4006eb:	e9 c0 ff ff ff       	jmp    4006b0 <putchar@plt-0x10>

00000000004006f0 <printf@plt>:
  4006f0:	ff 25 3a 19 20 00    	jmp    QWORD PTR [rip+0x20193a]        # 602030 <exit@plt+0x2018d0>
  4006f6:	68 03 00 00 00       	push   0x3
  4006fb:	e9 b0 ff ff ff       	jmp    4006b0 <putchar@plt-0x10>

0000000000400700 <memset@plt>:
  400700:	ff 25 32 19 20 00    	jmp    QWORD PTR [rip+0x201932]        # 602038 <exit@plt+0x2018d8>
  400706:	68 04 00 00 00       	push   0x4
  40070b:	e9 a0 ff ff ff       	jmp    4006b0 <putchar@plt-0x10>

0000000000400710 <read@plt>:
  400710:	ff 25 2a 19 20 00    	jmp    QWORD PTR [rip+0x20192a]        # 602040 <exit@plt+0x2018e0>
  400716:	68 05 00 00 00       	push   0x5
  40071b:	e9 90 ff ff ff       	jmp    4006b0 <putchar@plt-0x10>

0000000000400720 <getchar@plt>:
  400720:	ff 25 22 19 20 00    	jmp    QWORD PTR [rip+0x201922]        # 602048 <exit@plt+0x2018e8>
  400726:	68 06 00 00 00       	push   0x6
  40072b:	e9 80 ff ff ff       	jmp    4006b0 <putchar@plt-0x10>

0000000000400730 <feof@plt>:
  400730:	ff 25 1a 19 20 00    	jmp    QWORD PTR [rip+0x20191a]        # 602050 <exit@plt+0x2018f0>
  400736:	68 07 00 00 00       	push   0x7
  40073b:	e9 70 ff ff ff       	jmp    4006b0 <putchar@plt-0x10>

0000000000400740 <fflush@plt>:
  400740:	ff 25 12 19 20 00    	jmp    QWORD PTR [rip+0x201912]        # 602058 <exit@plt+0x2018f8>
  400746:	68 08 00 00 00       	push   0x8
  40074b:	e9 60 ff ff ff       	jmp    4006b0 <putchar@plt-0x10>

0000000000400750 <atoi@plt>:
  400750:	ff 25 0a 19 20 00    	jmp    QWORD PTR [rip+0x20190a]        # 602060 <exit@plt+0x201900>
  400756:	68 09 00 00 00       	push   0x9
  40075b:	e9 50 ff ff ff       	jmp    4006b0 <putchar@plt-0x10>

0000000000400760 <exit@plt>:
  400760:	ff 25 02 19 20 00    	jmp    QWORD PTR [rip+0x201902]        # 602068 <exit@plt+0x201908>
  400766:	68 0a 00 00 00       	push   0xa
  40076b:	e9 40 ff ff ff       	jmp    4006b0 <putchar@plt-0x10>

セクション .text の逆アセンブル:

0000000000400770 <.text>:
  400770:	31 ed                	xor    ebp,ebp
  400772:	49 89 d1             	mov    r9,rdx
  400775:	5e                   	pop    rsi
  400776:	48 89 e2             	mov    rdx,rsp
  400779:	48 83 e4 f0          	and    rsp,0xfffffffffffffff0
  40077d:	50                   	push   rax
  40077e:	54                   	push   rsp
  40077f:	49 c7 c0 50 11 40 00 	mov    r8,0x401150
  400786:	48 c7 c1 e0 10 40 00 	mov    rcx,0x4010e0
  40078d:	48 c7 c7 7b 10 40 00 	mov    rdi,0x40107b  # <- main
  400794:	ff 15 56 18 20 00    	call   QWORD PTR [rip+0x201856]        # 601ff0 <exit@plt+0x201890>

  40079a:	f4                   	hlt    
  40079b:	0f 1f 44 00 00       	nop    DWORD PTR [rax+rax*1+0x0]
  4007a0:	f3 c3                	repz ret 
  4007a2:	66 2e 0f 1f 84 00 00 	nop    WORD PTR cs:[rax+rax*1+0x0]
  4007a9:	00 00 00 
  4007ac:	0f 1f 40 00          	nop    DWORD PTR [rax+0x0]
  4007b0:	55                   	push   rbp
  4007b1:	b8 80 20 60 00       	mov    eax,0x602080
  4007b6:	48 3d 80 20 60 00    	cmp    rax,0x602080
  4007bc:	48 89 e5             	mov    rbp,rsp
  4007bf:	74 17                	je     4007d8 <exit@plt+0x78>
  4007c1:	b8 00 00 00 00       	mov    eax,0x0
  4007c6:	48 85 c0             	test   rax,rax
  4007c9:	74 0d                	je     4007d8 <exit@plt+0x78>
  4007cb:	5d                   	pop    rbp
  4007cc:	bf 80 20 60 00       	mov    edi,0x602080
  4007d1:	ff e0                	jmp    rax
  4007d3:	0f 1f 44 00 00       	nop    DWORD PTR [rax+rax*1+0x0]
  4007d8:	5d                   	pop    rbp
  4007d9:	c3                   	ret    
  4007da:	66 0f 1f 44 00 00    	nop    WORD PTR [rax+rax*1+0x0]
  4007e0:	be 80 20 60 00       	mov    esi,0x602080
  4007e5:	55                   	push   rbp
  4007e6:	48 81 ee 80 20 60 00 	sub    rsi,0x602080
  4007ed:	48 89 e5             	mov    rbp,rsp
  4007f0:	48 c1 fe 03          	sar    rsi,0x3
  4007f4:	48 89 f0             	mov    rax,rsi
  4007f7:	48 c1 e8 3f          	shr    rax,0x3f
  4007fb:	48 01 c6             	add    rsi,rax
  4007fe:	48 d1 fe             	sar    rsi,1
  400801:	74 15                	je     400818 <exit@plt+0xb8>
  400803:	b8 00 00 00 00       	mov    eax,0x0
  400808:	48 85 c0             	test   rax,rax
  40080b:	74 0b                	je     400818 <exit@plt+0xb8>
  40080d:	5d                   	pop    rbp
  40080e:	bf 80 20 60 00       	mov    edi,0x602080
  400813:	ff e0                	jmp    rax
  400815:	0f 1f 00             	nop    DWORD PTR [rax]
  400818:	5d                   	pop    rbp
  400819:	c3                   	ret    
  40081a:	66 0f 1f 44 00 00    	nop    WORD PTR [rax+rax*1+0x0]
  400820:	80 3d 71 18 20 00 00 	cmp    BYTE PTR [rip+0x201871],0x0        # 602098 <stdin@@GLIBC_2.2.5+0x8>
  400827:	75 17                	jne    400840 <exit@plt+0xe0>
  400829:	55                   	push   rbp
  40082a:	48 89 e5             	mov    rbp,rsp
  40082d:	e8 7e ff ff ff       	call   4007b0 <exit@plt+0x50>
  400832:	c6 05 5f 18 20 00 01 	mov    BYTE PTR [rip+0x20185f],0x1        # 602098 <stdin@@GLIBC_2.2.5+0x8>
  400839:	5d                   	pop    rbp
  40083a:	c3                   	ret    
  40083b:	0f 1f 44 00 00       	nop    DWORD PTR [rax+rax*1+0x0]
  400840:	f3 c3                	repz ret 
  400842:	0f 1f 40 00          	nop    DWORD PTR [rax+0x0]
  400846:	66 2e 0f 1f 84 00 00 	nop    WORD PTR cs:[rax+rax*1+0x0]
  40084d:	00 00 00 
  400850:	55                   	push   rbp
  400851:	48 89 e5             	mov    rbp,rsp
  400854:	5d                   	pop    rbp
  400855:	eb 89                	jmp    4007e0 <exit@plt+0x80>

# Input1
  400857:	55                   	push   rbp
  400858:	48 89 e5             	mov    rbp,rsp
  40085b:	48 83 ec 20          	sub    rsp,0x20
  40085f:	89 7d ec             	mov    DWORD PTR [rbp-0x14],edi
  400862:	48 89 75 e0          	mov    QWORD PTR [rbp-0x20],rsi
  400866:	8b 45 ec             	mov    eax,DWORD PTR [rbp-0x14]
  400869:	48 63 d0             	movsxd rdx,eax
  40086c:	48 8b 45 e0          	mov    rax,QWORD PTR [rbp-0x20]
  400870:	be 00 00 00 00       	mov    esi,0x0
  400875:	48 89 c7             	mov    rdi,rax
  400878:	e8 83 fe ff ff       	call   400700 <memset@plt>
  # arg[0]: 0x7fffffffc7c0 --> 0x0
  # arg[1]: 0x0
  # arg[2]: 0x20 (' ')

  40087d:	c7 45 fc 00 00 00 00 	mov    DWORD PTR [rbp-0x4],0x0
  400884:	eb 22                	jmp    4008a8 <exit@plt+0x148>

  400886:	8b 45 ec             	mov    eax,DWORD PTR [rbp-0x14]
  400889:	83 e8 01             	sub    eax,0x1
  40088c:	39 45 fc             	cmp    DWORD PTR [rbp-0x4],eax
  40088f:	7d 17                	jge    4008a8 <exit@plt+0x148>
  400891:	8b 45 fc             	mov    eax,DWORD PTR [rbp-0x4]
  400894:	48 63 d0             	movsxd rdx,eax
  400897:	48 8b 45 e0          	mov    rax,QWORD PTR [rbp-0x20]
  40089b:	48 01 c2             	add    rdx,rax
  40089e:	0f b6 45 fb          	movzx  eax,BYTE PTR [rbp-0x5]
  4008a2:	88 02                	mov    BYTE PTR [rdx],al
  4008a4:	83 45 fc 01          	add    DWORD PTR [rbp-0x4],0x1
  4008a8:	e8 73 fe ff ff       	call   400720 <getchar@plt>

  4008ad:	88 45 fb             	mov    BYTE PTR [rbp-0x5],al
  4008b0:	80 7d fb 0a          	cmp    BYTE PTR [rbp-0x5],0xa  # 改行まで読み込む
  4008b4:	74 13                	je     4008c9 <exit@plt+0x169>
  4008b6:	48 8b 05 d3 17 20 00 	mov    rax,QWORD PTR [rip+0x2017d3]        # 602090 <stdin@@GLIBC_2.2.5>
  4008bd:	48 89 c7             	mov    rdi,rax
  4008c0:	e8 6b fe ff ff       	call   400730 <feof@plt>
  4008c5:	85 c0                	test   eax,eax
  4008c7:	74 bd                	je     400886 <exit@plt+0x126>

  4008c9:	8b 45 fc             	mov    eax,DWORD PTR [rbp-0x4]
  4008cc:	48 63 d0             	movsxd rdx,eax
  4008cf:	48 8b 45 e0          	mov    rax,QWORD PTR [rbp-0x20]
  4008d3:	48 01 d0             	add    rax,rdx
  4008d6:	c6 00 00             	mov    BYTE PTR [rax],0x0  # null終端
  4008d9:	90                   	nop
  4008da:	c9                   	leave  
  4008db:	c3                   	ret    

  # call_input1_with_0x20
  call_input1_with_0x20
  4008dc: 55                   	push   rbp
  4008dd:	48 89 e5             	mov    rbp,rsp
  4008e0:	48 83 ec 30          	sub    rsp,0x30
  4008e4:	64 48 8b 04 25 28 00 	mov    rax,QWORD PTR fs:0x28
  4008eb:	00 00 
  4008ed:	48 89 45 f8          	mov    QWORD PTR [rbp-0x8],rax
  4008f1:	31 c0                	xor    eax,eax
  4008f3:	48 8d 45 d0          	lea    rax,[rbp-0x30]
  4008f7:	48 89 c6             	mov    rsi,rax
  4008fa:	bf 20 00 00 00       	mov    edi,0x20
  4008ff:	e8 53 ff ff ff       	call   400857 <exit@plt+0xf7>
  # arg[0]: 0x20 (' ')
  # arg[1]: 0x7fffffffc7c0 --> 0x0

  400904:	0f b6 45 d0          	movzx  eax,BYTE PTR [rbp-0x30]
  400908:	48 8b 55 f8          	mov    rdx,QWORD PTR [rbp-0x8]
  40090c:	64 48 33 14 25 28 00 	xor    rdx,QWORD PTR fs:0x28
  400913:	00 00 
  400915:	74 05                	je     40091c <exit@plt+0x1bc>
  400917:	e8 c4 fd ff ff       	call   4006e0 <__stack_chk_fail@plt>
  40091c:	c9                   	leave  
  40091d:	c3                   	ret    

  40091e:	55                   	push   rbp
  40091f:	48 89 e5             	mov    rbp,rsp
  400922:	48 83 ec 30          	sub    rsp,0x30
  400926:	64 48 8b 04 25 28 00 	mov    rax,QWORD PTR fs:0x28
  40092d:	00 00 
  40092f:	48 89 45 f8          	mov    QWORD PTR [rbp-0x8],rax
  400933:	31 c0                	xor    eax,eax
  400935:	48 8d 45 d0          	lea    rax,[rbp-0x30]
  400939:	48 89 c6             	mov    rsi,rax
  40093c:	bf 20 00 00 00       	mov    edi,0x20
  400941:	e8 11 ff ff ff       	call   400857 <exit@plt+0xf7>
  400946:	48 8d 45 d0          	lea    rax,[rbp-0x30]
  40094a:	48 89 c7             	mov    rdi,rax
  40094d:	e8 fe fd ff ff       	call   400750 <atoi@plt>
  400952:	48 8b 55 f8          	mov    rdx,QWORD PTR [rbp-0x8]
  400956:	64 48 33 14 25 28 00 	xor    rdx,QWORD PTR fs:0x28
  40095d:	00 00 
  40095f:	74 05                	je     400966 <exit@plt+0x206>
  400961:	e8 7a fd ff ff       	call   4006e0 <__stack_chk_fail@plt>
  400966:	c9                   	leave  
  400967:	c3                   	ret    

# Select_good_weapon
  400968:	55                   	push   rbp
  400969:	48 89 e5             	mov    rbp,rsp
  40096c:	48 83 ec 20          	sub    rsp,0x20
  400970:	48 89 7d e8          	mov    QWORD PTR [rbp-0x18],rdi
  400974:	48 8d 3d ed 07 00 00 	lea    rdi,[rip+0x7ed]        # 401168 <exit@plt+0xa08>
  40097b:	e8 50 fd ff ff       	call   4006d0 <puts@plt>
  # arg[0]: 0x401168 ("Choose thy weapon:")

  400980:	48 8d 3d f4 07 00 00 	lea    rdi,[rip+0x7f4]        # 40117b <exit@plt+0xa1b>
  400987:	e8 44 fd ff ff       	call   4006d0 <puts@plt>
  # arg[0]: 0x40117b ("1) +5 Holy avenger longsword")

  40098c:	48 8d 3d 05 08 00 00 	lea    rdi,[rip+0x805]        # 401198 <exit@plt+0xa38>
  400993:	e8 38 fd ff ff       	call   4006d0 <puts@plt>
  # arg[0]: 0x401198 ("2) +4 Crossbow of deadly accuracy")

  400998:	48 8b 05 e1 16 20 00 	mov    rax,QWORD PTR [rip+0x2016e1]        # 602080 <stdout@@GLIBC_2.2.5>
  40099f:	48 89 c7             	mov    rdi,rax
  4009a2:	e8 99 fd ff ff       	call   400740 <fflush@plt>
  4009a7:	b8 00 00 00 00       	mov    eax,0x0
  4009ac:	e8 2b ff ff ff       	call   call_input1_with_0x20 <exit@plt+0x17c>

  4009b1:	88 45 fb             	mov    BYTE PTR [rbp-0x5],al
  4009b4:	80 7d fb 31          	cmp    BYTE PTR [rbp-0x5],0x31  # compare to "1"
  4009b8:	75 09                	jne    4009c3 <exit@plt+0x263>
  4009ba:	48 8b 45 e8          	mov    rax,QWORD PTR [rbp-0x18]
  4009be:	c6 00 6c             	mov    BYTE PTR [rax],0x6c
  4009c1:	eb 30                	jmp    4009f3 <exit@plt+0x293>

  4009c3:	80 7d fb 32          	cmp    BYTE PTR [rbp-0x5],0x32  # compare to "2"
  4009c7:	75 09                	jne    4009d2 <exit@plt+0x272>
  4009c9:	48 8b 45 e8          	mov    rax,QWORD PTR [rbp-0x18]
  4009cd:	c6 00 78             	mov    BYTE PTR [rax],0x78
  4009d0:	eb 21                	jmp    4009f3 <exit@plt+0x293>

  4009d2:	0f be 45 fb          	movsx  eax,BYTE PTR [rbp-0x5]
  4009d6:	89 c6                	mov    esi,eax
  4009d8:	48 8d 3d e1 07 00 00 	lea    rdi,[rip+0x7e1]        # 4011c0 <exit@plt+0xa60>
  4009df:	b8 00 00 00 00       	mov    eax,0x0
  4009e4:	e8 07 fd ff ff       	call   4006f0 <printf@plt>
  # arg[0]: 0x4011c0 ("Error: invalid weapon selection. Selection was %c\n")
  # arg[1]: 0x41 ('A')

  4009e9:	bf 00 00 00 00       	mov    edi,0x0
  4009ee:	e8 6d fd ff ff       	call   400760 <exit@plt>

  4009f3:	48 8b 45 e8          	mov    rax,QWORD PTR [rbp-0x18]
  4009f7:	66 c7 40 02 14 00    	mov    WORD PTR [rax+0x2],0x14
  4009fd:	48 8b 45 e8          	mov    rax,QWORD PTR [rbp-0x18]
  400a01:	c7 40 04 0f 00 00 00 	mov    DWORD PTR [rax+0x4],0xf
  400a08:	48 8b 45 e8          	mov    rax,QWORD PTR [rbp-0x18]
  400a0c:	f2 0f 10 05 4c 0c 00 	movsd  xmm0,QWORD PTR [rip+0xc4c]        # 401660 <exit@plt+0xf00>
  400a13:	00 
  400a14:	f2 0f 11 40 28       	movsd  QWORD PTR [rax+0x28],xmm0
  400a19:	48 8d 3d d3 07 00 00 	lea    rdi,[rip+0x7d3]        # 4011f3 <exit@plt+0xa93>
  400a20:	e8 ab fc ff ff       	call   4006d0 <puts@plt>
  # arg[0]: 0x4011f3 ("Enter thy name:")

  400a25:	48 8b 05 54 16 20 00 	mov    rax,QWORD PTR [rip+0x201654]        # 602080 <stdout@@GLIBC_2.2.5>
  400a2c:	48 89 c7             	mov    rdi,rax
  400a2f:	e8 0c fd ff ff       	call   400740 <fflush@plt>
  400a34:	48 8b 45 e8          	mov    rax,QWORD PTR [rbp-0x18]
  400a38:	48 83 c0 08          	add    rax,0x8
  400a3c:	ba 20 00 00 00       	mov    edx,0x20
  400a41:	48 89 c6             	mov    rsi,rax
  400a44:	bf 00 00 00 00       	mov    edi,0x0
  400a49:	e8 c2 fc ff ff       	call   400710 <read@plt>
  # arg[0]: 0x0
  # arg[1]: 0x7fffffffc858 --> 0x0
  # arg[2]: 0x20 (' ')

  400a4e:	c7 45 fc 00 00 00 00 	mov    DWORD PTR [rbp-0x4],0x0
  400a55:	eb 24                	jmp    400a7b <exit@plt+0x31b>

  400a57:	48 8b 55 e8          	mov    rdx,QWORD PTR [rbp-0x18]
  400a5b:	8b 45 fc             	mov    eax,DWORD PTR [rbp-0x4]
  400a5e:	48 98                	cdqe   
  400a60:	0f b6 44 02 08       	movzx  eax,BYTE PTR [rdx+rax*1+0x8]
  400a65:	3c 0a                	cmp    al,0xa  # 改行まで？
  400a67:	75 0e                	jne    400a77 <exit@plt+0x317>

  400a69:	48 8b 55 e8          	mov    rdx,QWORD PTR [rbp-0x18]
  400a6d:	8b 45 fc             	mov    eax,DWORD PTR [rbp-0x4]
  400a70:	48 98                	cdqe   
  400a72:	c6 44 02 08 00       	mov    BYTE PTR [rdx+rax*1+0x8],0x0

  400a77:	83 45 fc 01          	add    DWORD PTR [rbp-0x4],0x1
  400a7b:	83 7d fc 1e          	cmp    DWORD PTR [rbp-0x4],0x1e # 0x1e回ループ
  400a7f:	7e d6                	jle    400a57 <exit@plt+0x2f7>
  400a81:	90                   	nop
  400a82:	c9                   	leave  
  400a83:	c3                   	ret    

# Select_evil_weapon
  400a84:	55                   	push   rbp
  400a85:	48 89 e5             	mov    rbp,rsp
  400a88:	48 83 ec 20          	sub    rsp,0x20
  400a8c:	48 89 7d e8          	mov    QWORD PTR [rbp-0x18],rdi
  400a90:	48 8d 3d d1 06 00 00 	lea    rdi,[rip+0x6d1]        # 401168 <exit@plt+0xa08>
  400a97:	e8 34 fc ff ff       	call   4006d0 <puts@plt>
  400a9c:	48 8d 3d 65 07 00 00 	lea    rdi,[rip+0x765]        # 401208 <exit@plt+0xaa8>
  400aa3:	e8 28 fc ff ff       	call   4006d0 <puts@plt>
  400aa8:	48 8d 3d 81 07 00 00 	lea    rdi,[rip+0x781]        # 401230 <exit@plt+0xad0>
  400aaf:	e8 1c fc ff ff       	call   4006d0 <puts@plt>
  400ab4:	48 8b 05 c5 15 20 00 	mov    rax,QWORD PTR [rip+0x2015c5]        # 602080 <stdout@@GLIBC_2.2.5>
  400abb:	48 89 c7             	mov    rdi,rax
  400abe:	e8 7d fc ff ff       	call   400740 <fflush@plt>
  400ac3:	b8 00 00 00 00       	mov    eax,0x0
  400ac8:	e8 0f fe ff ff       	call   call_input1_with_0x20 <exit@plt+0x17c>
  400acd:	88 45 fb             	mov    BYTE PTR [rbp-0x5],al
  400ad0:	80 7d fb 31          	cmp    BYTE PTR [rbp-0x5],0x31
  400ad4:	75 09                	jne    400adf <exit@plt+0x37f>
  400ad6:	48 8b 45 e8          	mov    rax,QWORD PTR [rbp-0x18]
  400ada:	c6 00 63             	mov    BYTE PTR [rax],0x63
  400add:	eb 30                	jmp    400b0f <exit@plt+0x3af>
  400adf:	80 7d fb 32          	cmp    BYTE PTR [rbp-0x5],0x32
  400ae3:	75 09                	jne    400aee <exit@plt+0x38e>
  400ae5:	48 8b 45 e8          	mov    rax,QWORD PTR [rbp-0x18]
  400ae9:	c6 00 73             	mov    BYTE PTR [rax],0x73
  400aec:	eb 21                	jmp    400b0f <exit@plt+0x3af>
  400aee:	0f be 45 fb          	movsx  eax,BYTE PTR [rbp-0x5]
  400af2:	89 c6                	mov    esi,eax
  400af4:	48 8d 3d c5 06 00 00 	lea    rdi,[rip+0x6c5]        # 4011c0 <exit@plt+0xa60>
  400afb:	b8 00 00 00 00       	mov    eax,0x0
  400b00:	e8 eb fb ff ff       	call   4006f0 <printf@plt>
  400b05:	bf 00 00 00 00       	mov    edi,0x0
  400b0a:	e8 51 fc ff ff       	call   400760 <exit@plt>
  400b0f:	48 8b 45 e8          	mov    rax,QWORD PTR [rbp-0x18]
  400b13:	66 c7 40 14 14 00    	mov    WORD PTR [rax+0x14],0x14
  400b19:	48 8b 45 e8          	mov    rax,QWORD PTR [rbp-0x18]
  400b1d:	c7 40 10 0f 00 00 00 	mov    DWORD PTR [rax+0x10],0xf
  400b24:	48 8b 45 e8          	mov    rax,QWORD PTR [rbp-0x18]
  400b28:	f2 0f 10 05 30 0b 00 	movsd  xmm0,QWORD PTR [rip+0xb30]        # 401660 <exit@plt+0xf00>
  400b2f:	00 
  400b30:	f2 0f 11 40 08       	movsd  QWORD PTR [rax+0x8],xmm0
  400b35:	48 8d 3d b7 06 00 00 	lea    rdi,[rip+0x6b7]        # 4011f3 <exit@plt+0xa93>
  400b3c:	e8 8f fb ff ff       	call   4006d0 <puts@plt>
  400b41:	48 8b 05 38 15 20 00 	mov    rax,QWORD PTR [rip+0x201538]        # 602080 <stdout@@GLIBC_2.2.5>
  400b48:	48 89 c7             	mov    rdi,rax
  400b4b:	e8 f0 fb ff ff       	call   400740 <fflush@plt>
  400b50:	48 8b 45 e8          	mov    rax,QWORD PTR [rbp-0x18]
  400b54:	48 83 c0 16          	add    rax,0x16
  400b58:	ba 20 00 00 00       	mov    edx,0x20
  400b5d:	48 89 c6             	mov    rsi,rax
  400b60:	bf 00 00 00 00       	mov    edi,0x0
  400b65:	e8 a6 fb ff ff       	call   400710 <read@plt>

  400b6a:	c7 45 fc 00 00 00 00 	mov    DWORD PTR [rbp-0x4],0x0
  400b71:	eb 24                	jmp    400b97 <exit@plt+0x437>
  400b73:	48 8b 55 e8          	mov    rdx,QWORD PTR [rbp-0x18]
  400b77:	8b 45 fc             	mov    eax,DWORD PTR [rbp-0x4]
  400b7a:	48 98                	cdqe   
  400b7c:	0f b6 44 02 16       	movzx  eax,BYTE PTR [rdx+rax*1+0x16]
  400b81:	3c 0a                	cmp    al,0xa
  400b83:	75 0e                	jne    400b93 <exit@plt+0x433>
  400b85:	48 8b 55 e8          	mov    rdx,QWORD PTR [rbp-0x18]
  400b89:	8b 45 fc             	mov    eax,DWORD PTR [rbp-0x4]
  400b8c:	48 98                	cdqe   
  400b8e:	c6 44 02 16 00       	mov    BYTE PTR [rdx+rax*1+0x16],0x0
  400b93:	83 45 fc 01          	add    DWORD PTR [rbp-0x4],0x1
  400b97:	83 7d fc 1e          	cmp    DWORD PTR [rbp-0x4],0x1e
  400b9b:	7e d6                	jle    400b73 <exit@plt+0x413>
  400b9d:	90                   	nop
  400b9e:	c9                   	leave  
  400b9f:	c3                   	ret    
  400ba0:	55                   	push   rbp
  400ba1:	48 89 e5             	mov    rbp,rsp
  400ba4:	48 83 ec 20          	sub    rsp,0x20
  400ba8:	48 89 7d e8          	mov    QWORD PTR [rbp-0x18],rdi
  400bac:	48 8d 3d a3 06 00 00 	lea    rdi,[rip+0x6a3]        # 401256 <exit@plt+0xaf6>
  400bb3:	e8 18 fb ff ff       	call   4006d0 <puts@plt>
  400bb8:	48 8d 3d aa 06 00 00 	lea    rdi,[rip+0x6aa]        # 401269 <exit@plt+0xb09>
  400bbf:	e8 0c fb ff ff       	call   4006d0 <puts@plt>
  400bc4:	48 8d 3d a7 06 00 00 	lea    rdi,[rip+0x6a7]        # 401272 <exit@plt+0xb12>
  400bcb:	e8 00 fb ff ff       	call   4006d0 <puts@plt>
  400bd0:	48 8d 3d a3 06 00 00 	lea    rdi,[rip+0x6a3]        # 40127a <exit@plt+0xb1a>
  400bd7:	e8 f4 fa ff ff       	call   4006d0 <puts@plt>
  400bdc:	48 8d 3d a1 06 00 00 	lea    rdi,[rip+0x6a1]        # 401284 <exit@plt+0xb24>
  400be3:	e8 e8 fa ff ff       	call   4006d0 <puts@plt>
  400be8:	48 8b 05 91 14 20 00 	mov    rax,QWORD PTR [rip+0x201491]        # 602080 <stdout@@GLIBC_2.2.5>
  400bef:	48 89 c7             	mov    rdi,rax
  400bf2:	e8 49 fb ff ff       	call   400740 <fflush@plt>
  400bf7:	b8 00 00 00 00       	mov    eax,0x0
  400bfc:	e8 db fc ff ff       	call   call_input1_with_0x20 <exit@plt+0x17c>
  400c01:	88 45 fb             	mov    BYTE PTR [rbp-0x5],al
  400c04:	80 7d fb 62          	cmp    BYTE PTR [rbp-0x5],0x62
  400c08:	75 56                	jne    400c60 <exit@plt+0x500>
  400c0a:	48 8d 3d 7f 06 00 00 	lea    rdi,[rip+0x67f]        # 401290 <exit@plt+0xb30>
  400c11:	e8 ba fa ff ff       	call   4006d0 <puts@plt>
  400c16:	48 8b 05 63 14 20 00 	mov    rax,QWORD PTR [rip+0x201463]        # 602080 <stdout@@GLIBC_2.2.5>
  400c1d:	48 89 c7             	mov    rdi,rax
  400c20:	e8 1b fb ff ff       	call   400740 <fflush@plt>
  400c25:	b8 00 00 00 00       	mov    eax,0x0
  400c2a:	e8 ef fc ff ff       	call   40091e <exit@plt+0x1be>
  400c2f:	89 45 fc             	mov    DWORD PTR [rbp-0x4],eax
  400c32:	83 7d fc 00          	cmp    DWORD PTR [rbp-0x4],0x0
  400c36:	7e 0e                	jle    400c46 <exit@plt+0x4e6>
  400c38:	48 8d 3d 89 06 00 00 	lea    rdi,[rip+0x689]        # 4012c8 <exit@plt+0xb68>
  400c3f:	e8 8c fa ff ff       	call   4006d0 <puts@plt>
  400c44:	eb 0c                	jmp    400c52 <exit@plt+0x4f2>
  400c46:	48 8d 3d 9d 06 00 00 	lea    rdi,[rip+0x69d]        # 4012ea <exit@plt+0xb8a>
  400c4d:	e8 7e fa ff ff       	call   4006d0 <puts@plt>
  400c52:	48 8d 3d a7 06 00 00 	lea    rdi,[rip+0x6a7]        # 401300 <exit@plt+0xba0>
  400c59:	e8 72 fa ff ff       	call   4006d0 <puts@plt>
  400c5e:	eb 6e                	jmp    400cce <exit@plt+0x56e>
  400c60:	80 7d fb 66          	cmp    BYTE PTR [rbp-0x5],0x66
  400c64:	75 32                	jne    400c98 <exit@plt+0x538>
  400c66:	48 8b 45 e8          	mov    rax,QWORD PTR [rbp-0x18]
  400c6a:	48 89 c6             	mov    rsi,rax
  400c6d:	48 8d 3d b4 06 00 00 	lea    rdi,[rip+0x6b4]        # 401328 <exit@plt+0xbc8>
  400c74:	b8 00 00 00 00       	mov    eax,0x0
  400c79:	e8 72 fa ff ff       	call   4006f0 <printf@plt>
  400c7e:	48 8d 3d fb 06 00 00 	lea    rdi,[rip+0x6fb]        # 401380 <exit@plt+0xc20>
  400c85:	e8 46 fa ff ff       	call   4006d0 <puts@plt>
  400c8a:	48 8d 3d 6f 06 00 00 	lea    rdi,[rip+0x66f]        # 401300 <exit@plt+0xba0>
  400c91:	e8 3a fa ff ff       	call   4006d0 <puts@plt>
  400c96:	eb 36                	jmp    400cce <exit@plt+0x56e>
  400c98:	80 7d fb 72          	cmp    BYTE PTR [rbp-0x5],0x72
  400c9c:	75 1a                	jne    400cb8 <exit@plt+0x558>
  400c9e:	48 8b 45 e8          	mov    rax,QWORD PTR [rbp-0x18]
  400ca2:	48 89 c6             	mov    rsi,rax
  400ca5:	48 8d 3d fd 06 00 00 	lea    rdi,[rip+0x6fd]        # 4013a9 <exit@plt+0xc49>
  400cac:	b8 00 00 00 00       	mov    eax,0x0
  400cb1:	e8 3a fa ff ff       	call   4006f0 <printf@plt>
  400cb6:	eb 16                	jmp    400cce <exit@plt+0x56e>
  400cb8:	48 8d 3d 01 07 00 00 	lea    rdi,[rip+0x701]        # 4013c0 <exit@plt+0xc60>
  400cbf:	e8 0c fa ff ff       	call   4006d0 <puts@plt>
  400cc4:	bf 00 00 00 00       	mov    edi,0x0
  400cc9:	e8 92 fa ff ff       	call   400760 <exit@plt>
  400cce:	c9                   	leave  
  400ccf:	c3                   	ret    
  400cd0:	55                   	push   rbp
  400cd1:	48 89 e5             	mov    rbp,rsp
  400cd4:	48 83 ec 20          	sub    rsp,0x20
  400cd8:	48 89 7d e8          	mov    QWORD PTR [rbp-0x18],rdi
  400cdc:	48 8d 3d 73 05 00 00 	lea    rdi,[rip+0x573]        # 401256 <exit@plt+0xaf6>
  400ce3:	e8 e8 f9 ff ff       	call   4006d0 <puts@plt>
  400ce8:	48 8d 3d 7a 05 00 00 	lea    rdi,[rip+0x57a]        # 401269 <exit@plt+0xb09>
  400cef:	e8 dc f9 ff ff       	call   4006d0 <puts@plt>
  400cf4:	48 8d 3d df 06 00 00 	lea    rdi,[rip+0x6df]        # 4013da <exit@plt+0xc7a>
  400cfb:	e8 d0 f9 ff ff       	call   4006d0 <puts@plt>
  400d00:	48 8d 3d dc 06 00 00 	lea    rdi,[rip+0x6dc]        # 4013e3 <exit@plt+0xc83>
  400d07:	e8 c4 f9 ff ff       	call   4006d0 <puts@plt>
  400d0c:	48 8d 3d 71 05 00 00 	lea    rdi,[rip+0x571]        # 401284 <exit@plt+0xb24>
  400d13:	e8 b8 f9 ff ff       	call   4006d0 <puts@plt>
  400d18:	48 8b 05 61 13 20 00 	mov    rax,QWORD PTR [rip+0x201361]        # 602080 <stdout@@GLIBC_2.2.5>
  400d1f:	48 89 c7             	mov    rdi,rax
  400d22:	e8 19 fa ff ff       	call   400740 <fflush@plt>
  400d27:	b8 00 00 00 00       	mov    eax,0x0
  400d2c:	e8 ab fb ff ff       	call   call_input1_with_0x20 <exit@plt+0x17c>
  400d31:	88 45 ff             	mov    BYTE PTR [rbp-0x1],al
  400d34:	80 7d ff 65          	cmp    BYTE PTR [rbp-0x1],0x65
  400d38:	75 3e                	jne    400d78 <exit@plt+0x618>
  400d3a:	48 8b 45 e8          	mov    rax,QWORD PTR [rbp-0x18]
  400d3e:	48 89 c6             	mov    rsi,rax
  400d41:	48 8d 3d a8 06 00 00 	lea    rdi,[rip+0x6a8]        # 4013f0 <exit@plt+0xc90>
  400d48:	b8 00 00 00 00       	mov    eax,0x0
  400d4d:	e8 9e f9 ff ff       	call   4006f0 <printf@plt>
  400d52:	48 8d 3d cf 06 00 00 	lea    rdi,[rip+0x6cf]        # 401428 <exit@plt+0xcc8>
  400d59:	e8 72 f9 ff ff       	call   4006d0 <puts@plt>
  400d5e:	48 8b 45 e8          	mov    rax,QWORD PTR [rbp-0x18]
  400d62:	48 89 c6             	mov    rsi,rax
  400d65:	48 8d 3d e7 06 00 00 	lea    rdi,[rip+0x6e7]        # 401453 <exit@plt+0xcf3>
  400d6c:	b8 00 00 00 00       	mov    eax,0x0
  400d71:	e8 7a f9 ff ff       	call   4006f0 <printf@plt>
  400d76:	eb 7a                	jmp    400df2 <exit@plt+0x692>
  400d78:	80 7d ff 6d          	cmp    BYTE PTR [rbp-0x1],0x6d
  400d7c:	75 3e                	jne    400dbc <exit@plt+0x65c>
  400d7e:	48 8b 45 e8          	mov    rax,QWORD PTR [rbp-0x18]
  400d82:	48 89 c6             	mov    rsi,rax
  400d85:	48 8d 3d dc 06 00 00 	lea    rdi,[rip+0x6dc]        # 401468 <exit@plt+0xd08>
  400d8c:	b8 00 00 00 00       	mov    eax,0x0
  400d91:	e8 5a f9 ff ff       	call   4006f0 <printf@plt>
  400d96:	48 8d 3d 1b 07 00 00 	lea    rdi,[rip+0x71b]        # 4014b8 <exit@plt+0xd58>
  400d9d:	e8 2e f9 ff ff       	call   4006d0 <puts@plt>
  400da2:	48 8b 45 e8          	mov    rax,QWORD PTR [rbp-0x18]
  400da6:	48 89 c6             	mov    rsi,rax
  400da9:	48 8d 3d a3 06 00 00 	lea    rdi,[rip+0x6a3]        # 401453 <exit@plt+0xcf3>
  400db0:	b8 00 00 00 00       	mov    eax,0x0
  400db5:	e8 36 f9 ff ff       	call   4006f0 <printf@plt>
  400dba:	eb 36                	jmp    400df2 <exit@plt+0x692>
  400dbc:	80 7d ff 72          	cmp    BYTE PTR [rbp-0x1],0x72
  400dc0:	75 1a                	jne    400ddc <exit@plt+0x67c>
  400dc2:	48 8b 45 e8          	mov    rax,QWORD PTR [rbp-0x18]
  400dc6:	48 89 c6             	mov    rsi,rax
  400dc9:	48 8d 3d 0c 07 00 00 	lea    rdi,[rip+0x70c]        # 4014dc <exit@plt+0xd7c>
  400dd0:	b8 00 00 00 00       	mov    eax,0x0
  400dd5:	e8 16 f9 ff ff       	call   4006f0 <printf@plt>
  400dda:	eb 16                	jmp    400df2 <exit@plt+0x692>
  400ddc:	48 8d 3d dd 05 00 00 	lea    rdi,[rip+0x5dd]        # 4013c0 <exit@plt+0xc60>
  400de3:	e8 e8 f8 ff ff       	call   4006d0 <puts@plt>
  400de8:	bf 00 00 00 00       	mov    edi,0x0
  400ded:	e8 6e f9 ff ff       	call   400760 <exit@plt>
  400df2:	c9                   	leave  
  400df3:	c3                   	ret    
  400df4:	55                   	push   rbp
  400df5:	48 89 e5             	mov    rbp,rsp
  400df8:	48 83 ec 20          	sub    rsp,0x20
  400dfc:	48 89 7d e8          	mov    QWORD PTR [rbp-0x18],rdi
  400e00:	89 75 e4             	mov    DWORD PTR [rbp-0x1c],esi
  400e03:	8b 45 e4             	mov    eax,DWORD PTR [rbp-0x1c]
  400e06:	48 63 d0             	movsxd rdx,eax
  400e09:	48 8d 05 90 12 20 00 	lea    rax,[rip+0x201290]        # 6020a0 <stdin@@GLIBC_2.2.5+0x10>
  400e10:	0f b6 04 02          	movzx  eax,BYTE PTR [rdx+rax*1]
  400e14:	88 45 f7             	mov    BYTE PTR [rbp-0x9],al
  400e17:	bf 0a 00 00 00       	mov    edi,0xa
  400e1c:	e8 9f f8 ff ff       	call   4006c0 <putchar@plt>
  400e21:	80 7d f7 67          	cmp    BYTE PTR [rbp-0x9],0x67
  400e25:	75 37                	jne    400e5e <exit@plt+0x6fe>
  400e27:	48 8b 45 e8          	mov    rax,QWORD PTR [rbp-0x18]
  400e2b:	48 83 c0 08          	add    rax,0x8
  400e2f:	48 89 45 f8          	mov    QWORD PTR [rbp-0x8],rax
  400e33:	48 83 45 e8 30       	add    QWORD PTR [rbp-0x18],0x30
  400e38:	48 8b 45 f8          	mov    rax,QWORD PTR [rbp-0x8]
  400e3c:	48 89 c6             	mov    rsi,rax
  400e3f:	48 8d 3d b2 06 00 00 	lea    rdi,[rip+0x6b2]        # 4014f8 <exit@plt+0xd98>
  400e46:	b8 00 00 00 00       	mov    eax,0x0
  400e4b:	e8 a0 f8 ff ff       	call   4006f0 <printf@plt>
  400e50:	48 8b 45 f8          	mov    rax,QWORD PTR [rbp-0x8]
  400e54:	48 89 c7             	mov    rdi,rax
  400e57:	e8 44 fd ff ff       	call   400ba0 <exit@plt+0x440>
  400e5c:	eb 53                	jmp    400eb1 <exit@plt+0x751>
  400e5e:	80 7d f7 65          	cmp    BYTE PTR [rbp-0x9],0x65
  400e62:	75 37                	jne    400e9b <exit@plt+0x73b>
  400e64:	48 8b 45 e8          	mov    rax,QWORD PTR [rbp-0x18]
  400e68:	48 83 c0 16          	add    rax,0x16
  400e6c:	48 89 45 f8          	mov    QWORD PTR [rbp-0x8],rax
  400e70:	48 83 45 e8 38       	add    QWORD PTR [rbp-0x18],0x38
  400e75:	48 8b 45 f8          	mov    rax,QWORD PTR [rbp-0x8]
  400e79:	48 89 c6             	mov    rsi,rax
  400e7c:	48 8d 3d 9d 06 00 00 	lea    rdi,[rip+0x69d]        # 401520 <exit@plt+0xdc0>
  400e83:	b8 00 00 00 00       	mov    eax,0x0
  400e88:	e8 63 f8 ff ff       	call   4006f0 <printf@plt>
  400e8d:	48 8b 45 f8          	mov    rax,QWORD PTR [rbp-0x8]
  400e91:	48 89 c7             	mov    rdi,rax
  400e94:	e8 37 fe ff ff       	call   400cd0 <exit@plt+0x570>
  400e99:	eb 16                	jmp    400eb1 <exit@plt+0x751>
  400e9b:	48 8d 3d 9e 06 00 00 	lea    rdi,[rip+0x69e]        # 401540 <exit@plt+0xde0>
  400ea2:	e8 29 f8 ff ff       	call   4006d0 <puts@plt>
  400ea7:	bf 00 00 00 00       	mov    edi,0x0
  400eac:	e8 af f8 ff ff       	call   400760 <exit@plt>
  400eb1:	48 8b 45 e8          	mov    rax,QWORD PTR [rbp-0x18]
  400eb5:	c9                   	leave  
  400eb6:	c3                   	ret    

  400eb7:	55                   	push   rbp
  400eb8:	48 89 e5             	mov    rbp,rsp
  400ebb:	48 83 ec 20          	sub    rsp,0x20
  400ebf:	48 89 7d e8          	mov    QWORD PTR [rbp-0x18],rdi
  400ec3:	89 75 e4             	mov    DWORD PTR [rbp-0x1c],esi
  400ec6:	bf 0a 00 00 00       	mov    edi,0xa
  400ecb:	e8 f0 f7 ff ff       	call   4006c0 <putchar@plt>
  # arg[0]: 0xa ('\n')

  400ed0:	8b 45 e4             	mov    eax,DWORD PTR [rbp-0x1c]
  400ed3:	83 c0 01             	add    eax,0x1
  400ed6:	89 c6                	mov    esi,eax
  400ed8:	48 8d 3d 81 06 00 00 	lea    rdi,[rip+0x681]        # 401560 <exit@plt+0xe00>
  400edf:	b8 00 00 00 00       	mov    eax,0x0
  400ee4:	e8 07 f8 ff ff       	call   4006f0 <printf@plt>
  # arg[0]: 0x401560 ("Bard #%d, choose thy alignment (g = good, e = evil):\n")
  # arg[1]: 0x1

  400ee9:	48 8b 05 90 11 20 00 	mov    rax,QWORD PTR [rip+0x201190]        # 602080 <stdout@@GLIBC_2.2.5>
  400ef0:	48 89 c7             	mov    rdi,rax
  400ef3:	e8 48 f8 ff ff       	call   400740 <fflush@plt>
  400ef8:	b8 00 00 00 00       	mov    eax,0x0

  400efd:	e8 da f9 ff ff       	call   call_input1_with_0x20 <exit@plt+0x17c>
  400f02:	88 45 ff             	mov    BYTE PTR [rbp-0x1],al
  400f05:	80 7d ff 67          	cmp    BYTE PTR [rbp-0x1],0x67  # compare to "g"
  400f09:	75 24                	jne    400f2f <exit@plt+0x7cf>
  400f0b:	8b 45 e4             	mov    eax,DWORD PTR [rbp-0x1c]
  400f0e:	48 63 d0             	movsxd rdx,eax
  400f11:	48 8d 05 88 11 20 00 	lea    rax,[rip+0x201188]        # 6020a0 <stdin@@GLIBC_2.2.5+0x10>
  400f18:	c6 04 02 67          	mov    BYTE PTR [rdx+rax*1],0x67
  400f1c:	48 8b 45 e8          	mov    rax,QWORD PTR [rbp-0x18]
  400f20:	48 89 c7             	mov    rdi,rax
  400f23:	e8 40 fa ff ff       	call   400968 <exit@plt+0x208> # Select_good_weapon

  400f28:	b8 30 00 00 00       	mov    eax,0x30
  400f2d:	eb 4b                	jmp    400f7a <exit@plt+0x81a>

  400f2f:	80 7d ff 65          	cmp    BYTE PTR [rbp-0x1],0x65  # compare to "e"
  400f33:	75 24                	jne    400f59 <exit@plt+0x7f9>
  400f35:	8b 45 e4             	mov    eax,DWORD PTR [rbp-0x1c]
  400f38:	48 63 d0             	movsxd rdx,eax
  400f3b:	48 8d 05 5e 11 20 00 	lea    rax,[rip+0x20115e]        # 6020a0 <stdin@@GLIBC_2.2.5+0x10>
  400f42:	c6 04 02 65          	mov    BYTE PTR [rdx+rax*1],0x65
  400f46:	48 8b 45 e8          	mov    rax,QWORD PTR [rbp-0x18]
  400f4a:	48 89 c7             	mov    rdi,rax
  400f4d:	e8 32 fb ff ff       	call   400a84 <exit@plt+0x324>  # Select_evil_weapon

  400f52:	b8 38 00 00 00       	mov    eax,0x38
  400f57:	eb 21                	jmp    400f7a <exit@plt+0x81a>

  400f59:	0f be 45 ff          	movsx  eax,BYTE PTR [rbp-0x1]
  400f5d:	89 c6                	mov    esi,eax
  400f5f:	48 8d 3d 30 06 00 00 	lea    rdi,[rip+0x630]        # 401596 <exit@plt+0xe36>
  400f66:	b8 00 00 00 00       	mov    eax,0x0
  400f6b:	e8 80 f7 ff ff       	call   4006f0 <printf@plt>
  # arg[0]: 0x401596 ("Invalid alignment: %c\n")
  # arg[1]: 0x68 ('h')

  400f70:	bf 00 00 00 00       	mov    edi,0x0
  400f75:	e8 e6 f7 ff ff       	call   400760 <exit@plt>
  400f7a:	c9                   	leave  
  400f7b:	c3                   	ret    

# Select item?
  400f7c:	55                   	push   rbp
  400f7d:	48 89 e5             	mov    rbp,rsp
  400f80:	48 81 ec 10 02 00 00 	sub    rsp,0x210
  400f87:	64 48 8b 04 25 28 00 	mov    rax,QWORD PTR fs:0x28
  400f8e:	00 00 
  400f90:	48 89 45 f8          	mov    QWORD PTR [rbp-0x8],rax
  400f94:	31 c0                	xor    eax,eax
  400f96:	48 8d 85 10 fe ff ff 	lea    rax,[rbp-0x1f0]
  400f9d:	ba e0 01 00 00       	mov    edx,0x1e0
  400fa2:	be 00 00 00 00       	mov    esi,0x0
  400fa7:	48 89 c7             	mov    rdi,rax
  400faa:	e8 51 f7 ff ff       	call   400700 <memset@plt>
  # arg[0]: 0x7fffffffc850 --> 0x5d0000006e ('n')
  # arg[1]: 0x0
  # arg[2]: 0x1e0

  400faf:	c7 85 fc fd ff ff 00 	mov    DWORD PTR [rbp-0x204],0x0
  400fb6:	00 00 00 
  400fb9:	c7 85 00 fe ff ff 00 	mov    DWORD PTR [rbp-0x200],0x0
  400fc0:	00 00 00 
  400fc3:	eb 39                	jmp    400ffe <exit@plt+0x89e>

  # loop(9)
  400fc5:	8b 85 fc fd ff ff    	mov    eax,DWORD PTR [rbp-0x204]
  400fcb:	48 98                	cdqe   
  400fcd:	48 8d 95 10 fe ff ff 	lea    rdx,[rbp-0x1f0]
  400fd4:	48 01 c2             	add    rdx,rax
  400fd7:	8b 85 00 fe ff ff    	mov    eax,DWORD PTR [rbp-0x200]
  400fdd:	89 c6                	mov    esi,eax
  400fdf:	48 89 d7             	mov    rdi,rdx

  400fe2:	e8 d0 fe ff ff       	call   400eb7 <exit@plt+0x757>
  # arg[0]: 0x7fffffffc850 --> 0x0
  # arg[1]: 0x0
  # arg[2]: 0x7fffffffc850 --> 0x0

  400fe7:	89 c2                	mov    edx,eax
  400fe9:	8b 85 fc fd ff ff    	mov    eax,DWORD PTR [rbp-0x204]
  400fef:	01 d0                	add    eax,edx
  400ff1:	89 85 fc fd ff ff    	mov    DWORD PTR [rbp-0x204],eax
  400ff7:	83 85 00 fe ff ff 01 	add    DWORD PTR [rbp-0x200],0x1

  400ffe:	83 bd 00 fe ff ff 09 	cmp    DWORD PTR [rbp-0x200],0x9
  401005:	7e be                	jle    400fc5 <exit@plt+0x865>
  # loop end

  401007:	c7 85 fc fd ff ff 00 	mov    DWORD PTR [rbp-0x204],0x0
  40100e:	00 00 00 
  401011:	8b 85 fc fd ff ff    	mov    eax,DWORD PTR [rbp-0x204]
  401017:	48 98                	cdqe   
  401019:	48 8d 95 10 fe ff ff 	lea    rdx,[rbp-0x1f0]
  401020:	48 01 d0             	add    rax,rdx
  401023:	48 89 85 08 fe ff ff 	mov    QWORD PTR [rbp-0x1f8],rax
  40102a:	c7 85 04 fe ff ff 00 	mov    DWORD PTR [rbp-0x1fc],0x0
  401031:	00 00 00 
  401034:	eb 25                	jmp    40105b <exit@plt+0x8fb>
  401036:	8b 95 04 fe ff ff    	mov    edx,DWORD PTR [rbp-0x1fc]
  40103c:	48 8b 85 08 fe ff ff 	mov    rax,QWORD PTR [rbp-0x1f8]
  401043:	89 d6                	mov    esi,edx
  401045:	48 89 c7             	mov    rdi,rax
  401048:	e8 a7 fd ff ff       	call   400df4 <exit@plt+0x694>
  40104d:	48 89 85 08 fe ff ff 	mov    QWORD PTR [rbp-0x1f8],rax
  401054:	83 85 04 fe ff ff 01 	add    DWORD PTR [rbp-0x1fc],0x1
  40105b:	83 bd 04 fe ff ff 09 	cmp    DWORD PTR [rbp-0x1fc],0x9
  401062:	7e d2                	jle    401036 <exit@plt+0x8d6>
  401064:	90                   	nop
  401065:	48 8b 45 f8          	mov    rax,QWORD PTR [rbp-0x8]
  401069:	64 48 33 04 25 28 00 	xor    rax,QWORD PTR fs:0x28
  401070:	00 00 
  401072:	74 05                	je     401079 <exit@plt+0x919>
  401074:	e8 67 f6 ff ff       	call   4006e0 <__stack_chk_fail@plt>
  401079:	c9                   	leave  
  40107a:	c3                   	ret    

# main
  40107b:	55                   	push   rbp
  40107c:	48 89 e5             	mov    rbp,rsp
  40107f:	48 83 ec 10          	sub    rsp,0x10
  401083:	89 7d fc             	mov    DWORD PTR [rbp-0x4],edi
  401086:	48 89 75 f0          	mov    QWORD PTR [rbp-0x10],rsi

  40108a:	48 8d 3d 1f 05 00 00 	lea    rdi,[rip+0x51f]        # 4015b0 <exit@plt+0xe50>
  401091:	e8 3a f6 ff ff       	call   4006d0 <puts@plt>
  # arg[0]: 0x4015b0 ("*** Welcome to the Bards' Fail! ***\n")

  401096:	48 8d 3d 38 05 00 00 	lea    rdi,[rip+0x538]        # 4015d5 <exit@plt+0xe75>
  40109d:	e8 2e f6 ff ff       	call   4006d0 <puts@plt>
  # arg[0]: 0x4015d5 ("Ten bards meet in a tavern.")

  4010a2:	48 8d 3d 48 05 00 00 	lea    rdi,[rip+0x548]        # 4015f1 <exit@plt+0xe91>
  4010a9:	e8 22 f6 ff ff       	call   4006d0 <puts@plt>
  # arg[0]: 0x4015f1 ("They form a band.")

  4010ae:	48 8d 3d 53 05 00 00 	lea    rdi,[rip+0x553]        # 401608 <exit@plt+0xea8>
  4010b5:	e8 16 f6 ff ff       	call   4006d0 <puts@plt>
  # arg[0]: 0x401608 ("You wonder if those weapons are real, or just props...")

  4010ba:	b8 00 00 00 00       	mov    eax,0x0
  4010bf:	e8 b8 fe ff ff       	call   400f7c <exit@plt+0x81c>

  4010c4:	48 8d 3d 74 05 00 00 	lea    rdi,[rip+0x574]        # 40163f <exit@plt+0xedf>  # "Thy bards hast disbanded!\n"
  4010cb:	e8 00 f6 ff ff       	call   4006d0 <puts@plt>
  4010d0:	b8 00 00 00 00       	mov    eax,0x0
  4010d5:	c9                   	leave  
  4010d6:	c3                   	ret    

  4010d7:	66 0f 1f 84 00 00 00 	nop    WORD PTR [rax+rax*1+0x0]
  4010de:	00 00 
  4010e0:	41 57                	push   r15
  4010e2:	41 56                	push   r14
  4010e4:	49 89 d7             	mov    r15,rdx
  4010e7:	41 55                	push   r13
  4010e9:	41 54                	push   r12
  4010eb:	4c 8d 25 1e 0d 20 00 	lea    r12,[rip+0x200d1e]        # 601e10 <exit@plt+0x2016b0>
  4010f2:	55                   	push   rbp
  4010f3:	48 8d 2d 1e 0d 20 00 	lea    rbp,[rip+0x200d1e]        # 601e18 <exit@plt+0x2016b8>
  4010fa:	53                   	push   rbx
  4010fb:	41 89 fd             	mov    r13d,edi
  4010fe:	49 89 f6             	mov    r14,rsi
  401101:	4c 29 e5             	sub    rbp,r12
  401104:	48 83 ec 08          	sub    rsp,0x8
  401108:	48 c1 fd 03          	sar    rbp,0x3
  40110c:	e8 87 f5 ff ff       	call   400698 <putchar@plt-0x28>
  401111:	48 85 ed             	test   rbp,rbp
  401114:	74 20                	je     401136 <exit@plt+0x9d6>
  401116:	31 db                	xor    ebx,ebx
  401118:	0f 1f 84 00 00 00 00 	nop    DWORD PTR [rax+rax*1+0x0]
  40111f:	00 
  401120:	4c 89 fa             	mov    rdx,r15
  401123:	4c 89 f6             	mov    rsi,r14
  401126:	44 89 ef             	mov    edi,r13d
  401129:	41 ff 14 dc          	call   QWORD PTR [r12+rbx*8]
  40112d:	48 83 c3 01          	add    rbx,0x1
  401131:	48 39 dd             	cmp    rbp,rbx
  401134:	75 ea                	jne    401120 <exit@plt+0x9c0>
  401136:	48 83 c4 08          	add    rsp,0x8
  40113a:	5b                   	pop    rbx
  40113b:	5d                   	pop    rbp
  40113c:	41 5c                	pop    r12
  40113e:	41 5d                	pop    r13
  401140:	41 5e                	pop    r14
  401142:	41 5f                	pop    r15
  401144:	c3                   	ret    
  401145:	90                   	nop
  401146:	66 2e 0f 1f 84 00 00 	nop    WORD PTR cs:[rax+rax*1+0x0]
  40114d:	00 00 00 
  401150:	f3 c3                	repz ret 

セクション .fini の逆アセンブル:

0000000000401154 <.fini>:
  401154:	48 83 ec 08          	sub    rsp,0x8
  401158:	48 83 c4 08          	add    rsp,0x8
  40115c:	c3                   	ret    
