
speedrun-002:     ファイル形式 elf64-x86-64


セクション .init の逆アセンブル:

0000000000400560 <.init>:
  400560:	48 83 ec 08          	sub    rsp,0x8
  400564:	48 8b 05 8d 0a 20 00 	mov    rax,QWORD PTR [rip+0x200a8d]        # 600ff8 <setvbuf@plt+0x200a08>
  40056b:	48 85 c0             	test   rax,rax
  40056e:	74 02                	je     400572 <getenv@plt-0x1e>
  400570:	ff d0                	call   rax
  400572:	48 83 c4 08          	add    rsp,0x8
  400576:	c3                   	ret    

セクション .plt の逆アセンブル:

0000000000400580 <getenv@plt-0x10>:
  400580:	ff 35 82 0a 20 00    	push   QWORD PTR [rip+0x200a82]        # 601008 <setvbuf@plt+0x200a18>
  400586:	ff 25 84 0a 20 00    	jmp    QWORD PTR [rip+0x200a84]        # 601010 <setvbuf@plt+0x200a20>
  40058c:	0f 1f 40 00          	nop    DWORD PTR [rax+0x0]

0000000000400590 <getenv@plt>:
  400590:	ff 25 82 0a 20 00    	jmp    QWORD PTR [rip+0x200a82]        # 601018 <setvbuf@plt+0x200a28>
  400596:	68 00 00 00 00       	push   0x0
  40059b:	e9 e0 ff ff ff       	jmp    400580 <getenv@plt-0x10>

00000000004005a0 <strncmp@plt>:
  4005a0:	ff 25 7a 0a 20 00    	jmp    QWORD PTR [rip+0x200a7a]        # 601020 <setvbuf@plt+0x200a30>
  4005a6:	68 01 00 00 00       	push   0x1
  4005ab:	e9 d0 ff ff ff       	jmp    400580 <getenv@plt-0x10>

00000000004005b0 <puts@plt>:
  4005b0:	ff 25 72 0a 20 00    	jmp    QWORD PTR [rip+0x200a72]        # 601028 <setvbuf@plt+0x200a38>
  4005b6:	68 02 00 00 00       	push   0x2
  4005bb:	e9 c0 ff ff ff       	jmp    400580 <getenv@plt-0x10>

00000000004005c0 <write@plt>:
  4005c0:	ff 25 6a 0a 20 00    	jmp    QWORD PTR [rip+0x200a6a]        # 601030 <setvbuf@plt+0x200a40>
  4005c6:	68 03 00 00 00       	push   0x3
  4005cb:	e9 b0 ff ff ff       	jmp    400580 <getenv@plt-0x10>

00000000004005d0 <alarm@plt>:
  4005d0:	ff 25 62 0a 20 00    	jmp    QWORD PTR [rip+0x200a62]        # 601038 <setvbuf@plt+0x200a48>
  4005d6:	68 04 00 00 00       	push   0x4
  4005db:	e9 a0 ff ff ff       	jmp    400580 <getenv@plt-0x10>

00000000004005e0 <read@plt>:
  4005e0:	ff 25 5a 0a 20 00    	jmp    QWORD PTR [rip+0x200a5a]        # 601040 <setvbuf@plt+0x200a50>
  4005e6:	68 05 00 00 00       	push   0x5
  4005eb:	e9 90 ff ff ff       	jmp    400580 <getenv@plt-0x10>

00000000004005f0 <setvbuf@plt>:
  4005f0:	ff 25 52 0a 20 00    	jmp    QWORD PTR [rip+0x200a52]        # 601048 <setvbuf@plt+0x200a58>
  4005f6:	68 06 00 00 00       	push   0x6
  4005fb:	e9 80 ff ff ff       	jmp    400580 <getenv@plt-0x10>

セクション .text の逆アセンブル:

0000000000400600 <.text>:
  400600:	31 ed                	xor    ebp,ebp
  400602:	49 89 d1             	mov    r9,rdx
  400605:	5e                   	pop    rsi
  400606:	48 89 e2             	mov    rdx,rsp
  400609:	48 83 e4 f0          	and    rsp,0xfffffffffffffff0
  40060d:	50                   	push   rax
  40060e:	54                   	push   rsp
  40060f:	49 c7 c0 b0 08 40 00 	mov    r8,0x4008b0
  400616:	48 c7 c1 40 08 40 00 	mov    rcx,0x400840
  40061d:	48 c7 c7 ce 07 40 00 	mov    rdi,0x4007ce
  400624:	ff 15 c6 09 20 00    	call   QWORD PTR [rip+0x2009c6]        # 600ff0 <setvbuf@plt+0x200a00>
  40062a:	f4                   	hlt    
  40062b:	0f 1f 44 00 00       	nop    DWORD PTR [rax+rax*1+0x0]
  400630:	f3 c3                	repz ret 
  400632:	66 2e 0f 1f 84 00 00 	nop    WORD PTR cs:[rax+rax*1+0x0]
  400639:	00 00 00 
  40063c:	0f 1f 40 00          	nop    DWORD PTR [rax+0x0]
  400640:	55                   	push   rbp
  400641:	b8 60 10 60 00       	mov    eax,0x601060
  400646:	48 3d 60 10 60 00    	cmp    rax,0x601060
  40064c:	48 89 e5             	mov    rbp,rsp
  40064f:	74 17                	je     400668 <setvbuf@plt+0x78>
  400651:	b8 00 00 00 00       	mov    eax,0x0
  400656:	48 85 c0             	test   rax,rax
  400659:	74 0d                	je     400668 <setvbuf@plt+0x78>
  40065b:	5d                   	pop    rbp
  40065c:	bf 60 10 60 00       	mov    edi,0x601060
  400661:	ff e0                	jmp    rax
  400663:	0f 1f 44 00 00       	nop    DWORD PTR [rax+rax*1+0x0]
  400668:	5d                   	pop    rbp
  400669:	c3                   	ret    
  40066a:	66 0f 1f 44 00 00    	nop    WORD PTR [rax+rax*1+0x0]
  400670:	be 60 10 60 00       	mov    esi,0x601060
  400675:	55                   	push   rbp
  400676:	48 81 ee 60 10 60 00 	sub    rsi,0x601060
  40067d:	48 89 e5             	mov    rbp,rsp
  400680:	48 c1 fe 03          	sar    rsi,0x3
  400684:	48 89 f0             	mov    rax,rsi
  400687:	48 c1 e8 3f          	shr    rax,0x3f
  40068b:	48 01 c6             	add    rsi,rax
  40068e:	48 d1 fe             	sar    rsi,1
  400691:	74 15                	je     4006a8 <setvbuf@plt+0xb8>
  400693:	b8 00 00 00 00       	mov    eax,0x0
  400698:	48 85 c0             	test   rax,rax
  40069b:	74 0b                	je     4006a8 <setvbuf@plt+0xb8>
  40069d:	5d                   	pop    rbp
  40069e:	bf 60 10 60 00       	mov    edi,0x601060
  4006a3:	ff e0                	jmp    rax
  4006a5:	0f 1f 00             	nop    DWORD PTR [rax]
  4006a8:	5d                   	pop    rbp
  4006a9:	c3                   	ret    
  4006aa:	66 0f 1f 44 00 00    	nop    WORD PTR [rax+rax*1+0x0]
  4006b0:	80 3d b1 09 20 00 00 	cmp    BYTE PTR [rip+0x2009b1],0x0        # 601068 <stdout@@GLIBC_2.2.5+0x8>
  4006b7:	75 17                	jne    4006d0 <setvbuf@plt+0xe0>
  4006b9:	55                   	push   rbp
  4006ba:	48 89 e5             	mov    rbp,rsp
  4006bd:	e8 7e ff ff ff       	call   400640 <setvbuf@plt+0x50>
  4006c2:	c6 05 9f 09 20 00 01 	mov    BYTE PTR [rip+0x20099f],0x1        # 601068 <stdout@@GLIBC_2.2.5+0x8>
  4006c9:	5d                   	pop    rbp
  4006ca:	c3                   	ret    
  4006cb:	0f 1f 44 00 00       	nop    DWORD PTR [rax+rax*1+0x0]
  4006d0:	f3 c3                	repz ret 
  4006d2:	0f 1f 40 00          	nop    DWORD PTR [rax+0x0]
  4006d6:	66 2e 0f 1f 84 00 00 	nop    WORD PTR cs:[rax+rax*1+0x0]
  4006dd:	00 00 00 
  4006e0:	55                   	push   rbp
  4006e1:	48 89 e5             	mov    rbp,rsp
  4006e4:	5d                   	pop    rbp
  4006e5:	eb 89                	jmp    400670 <setvbuf@plt+0x80>
  4006e7:	55                   	push   rbp
  4006e8:	48 89 e5             	mov    rbp,rsp
  4006eb:	b8 5a c3 00 00       	mov    eax,0xc35a
  4006f0:	5d                   	pop    rbp
  4006f1:	c3                   	ret    
  4006f2:	55                   	push   rbp
  4006f3:	48 89 e5             	mov    rbp,rsp
  4006f6:	48 8d 3d cb 01 00 00 	lea    rdi,[rip+0x1cb]        # 4008c8 <setvbuf@plt+0x2d8>
  4006fd:	e8 ae fe ff ff       	call   4005b0 <puts@plt>
  400702:	90                   	nop
  400703:	5d                   	pop    rbp
  400704:	c3                   	ret    


  # What an interesting thing to say.
  # Tell me more.
  400705:	55                   	push   rbp
  400706:	48 89 e5             	mov    rbp,rsp
  400709:	48 83 ec 10          	sub    rsp,0x10
  40070d:	48 89 7d f8          	mov    QWORD PTR [rbp-0x8],rdi
  400711:	48 8d 3d d8 01 00 00 	lea    rdi,[rip+0x1d8]        # 4008f0 <setvbuf@plt+0x300>
  400718:	e8 93 fe ff ff       	call   4005b0 <puts@plt>
  40071d:	48 8b 45 f8          	mov    rax,QWORD PTR [rbp-0x8]
  400721:	ba da 07 00 00       	mov    edx,0x7da
  400726:	48 89 c6             	mov    rsi,rax
  400729:	bf 00 00 00 00       	mov    edi,0x0
  40072e:	e8 ad fe ff ff       	call   4005e0 <read@plt>
  400733:	ba 0d 00 00 00       	mov    edx,0xd
  400738:	48 8d 35 e1 01 00 00 	lea    rsi,[rip+0x1e1]        # 400920 <setvbuf@plt+0x330>
  40073f:	bf 01 00 00 00       	mov    edi,0x1
  400744:	e8 77 fe ff ff       	call   4005c0 <write@plt>  # Fascinating.
  400749:	90                   	nop
  40074a:	c9                   	leave  
  40074b:	c3                   	ret    

  # read
  40074c:	55                   	push   rbp
  40074d:	48 89 e5             	mov    rbp,rsp
  400750:	48 81 ec 90 05 00 00 	sub    rsp,0x590
  400757:	48 8d 3d d0 01 00 00 	lea    rdi,[rip+0x1d0]        # 40092e <setvbuf@plt+0x33e>
  40075e:	e8 4d fe ff ff       	call   4005b0 <puts@plt>  # What say you now?
  400763:	48 8d 85 70 fa ff ff 	lea    rax,[rbp-0x590]
  40076a:	ba 2c 01 00 00       	mov    edx,0x12c
  40076f:	48 89 c6             	mov    rsi,rax
  400772:	bf 00 00 00 00       	mov    edi,0x0
  400777:	e8 64 fe ff ff       	call   4005e0 <read@plt>
  40077c:	48 8d 85 70 fa ff ff 	lea    rax,[rbp-0x590]
  400783:	ba 24 00 00 00       	mov    edx,0x24
  400788:	48 8d 35 b1 01 00 00 	lea    rsi,[rip+0x1b1]        # 400940 <setvbuf@plt+0x350>
  40078f:	48 89 c7             	mov    rdi,rax
  400792:	e8 09 fe ff ff       	call   4005a0 <strncmp@plt>  # Everything intelligent is so boring.
  400797:	85 c0                	test   eax,eax
  400799:	75 11                	jne    4007ac <setvbuf@plt+0x1bc>  # not equalだったら飛ぶ

  40079b:	48 8d 85 00 fc ff ff 	lea    rax,[rbp-0x400]
  4007a2:	48 89 c7             	mov    rdi,rax
  4007a5:	e8 5b ff ff ff       	call   400705 <setvbuf@plt+0x115>
  4007aa:	eb 0c                	jmp    4007b8 <setvbuf@plt+0x1c8>

  4007ac:	48 8d 3d b2 01 00 00 	lea    rdi,[rip+0x1b2]        # 400965 <setvbuf@plt+0x375>
  4007b3:	e8 f8 fd ff ff       	call   4005b0 <puts@plt>
  4007b8:	90                   	nop

  4007b9:	c9                   	leave  
  4007ba:	c3                   	ret    


  4007bb:	55                   	push   rbp
  4007bc:	48 89 e5             	mov    rbp,rsp
  4007bf:	48 8d 3d bb 01 00 00 	lea    rdi,[rip+0x1bb]        # 400981 <setvbuf@plt+0x391>
  4007c6:	e8 e5 fd ff ff       	call   4005b0 <puts@plt>
  4007cb:	90                   	nop
  4007cc:	5d                   	pop    rbp
  4007cd:	c3                   	ret    
  4007ce:	55                   	push   rbp
  4007cf:	48 89 e5             	mov    rbp,rsp
  4007d2:	48 83 ec 10          	sub    rsp,0x10
  4007d6:	89 7d fc             	mov    DWORD PTR [rbp-0x4],edi
  4007d9:	48 89 75 f0          	mov    QWORD PTR [rbp-0x10],rsi
  4007dd:	48 8b 05 7c 08 20 00 	mov    rax,QWORD PTR [rip+0x20087c]        # 601060 <stdout@@GLIBC_2.2.5>
  4007e4:	b9 00 00 00 00       	mov    ecx,0x0
  4007e9:	ba 02 00 00 00       	mov    edx,0x2
  4007ee:	be 00 00 00 00       	mov    esi,0x0
  4007f3:	48 89 c7             	mov    rdi,rax
  4007f6:	e8 f5 fd ff ff       	call   4005f0 <setvbuf@plt>
  4007fb:	48 8d 3d 8f 01 00 00 	lea    rdi,[rip+0x18f]        # 400991 <setvbuf@plt+0x3a1>
  400802:	e8 89 fd ff ff       	call   400590 <getenv@plt>
  400807:	48 85 c0             	test   rax,rax
  40080a:	75 0a                	jne    400816 <setvbuf@plt+0x226>
  40080c:	bf 05 00 00 00       	mov    edi,0x5
  400811:	e8 ba fd ff ff       	call   4005d0 <alarm@plt>
  400816:	b8 00 00 00 00       	mov    eax,0x0
  40081b:	e8 d2 fe ff ff       	call   4006f2 <setvbuf@plt+0x102>
  400820:	b8 00 00 00 00       	mov    eax,0x0
  400825:	e8 22 ff ff ff       	call   40074c <setvbuf@plt+0x15c>
  40082a:	b8 00 00 00 00       	mov    eax,0x0
  40082f:	e8 87 ff ff ff       	call   4007bb <setvbuf@plt+0x1cb>
  400834:	b8 00 00 00 00       	mov    eax,0x0
  400839:	c9                   	leave  
  40083a:	c3                   	ret    
  40083b:	0f 1f 44 00 00       	nop    DWORD PTR [rax+rax*1+0x0]
  400840:	41 57                	push   r15
  400842:	41 56                	push   r14
  400844:	49 89 d7             	mov    r15,rdx
  400847:	41 55                	push   r13
  400849:	41 54                	push   r12
  40084b:	4c 8d 25 be 05 20 00 	lea    r12,[rip+0x2005be]        # 600e10 <setvbuf@plt+0x200820>
  400852:	55                   	push   rbp
  400853:	48 8d 2d be 05 20 00 	lea    rbp,[rip+0x2005be]        # 600e18 <setvbuf@plt+0x200828>
  40085a:	53                   	push   rbx
  40085b:	41 89 fd             	mov    r13d,edi
  40085e:	49 89 f6             	mov    r14,rsi
  400861:	4c 29 e5             	sub    rbp,r12
  400864:	48 83 ec 08          	sub    rsp,0x8
  400868:	48 c1 fd 03          	sar    rbp,0x3
  40086c:	e8 ef fc ff ff       	call   400560 <getenv@plt-0x30>
  400871:	48 85 ed             	test   rbp,rbp
  400874:	74 20                	je     400896 <setvbuf@plt+0x2a6>
  400876:	31 db                	xor    ebx,ebx
  400878:	0f 1f 84 00 00 00 00 	nop    DWORD PTR [rax+rax*1+0x0]
  40087f:	00 
  400880:	4c 89 fa             	mov    rdx,r15
  400883:	4c 89 f6             	mov    rsi,r14
  400886:	44 89 ef             	mov    edi,r13d
  400889:	41 ff 14 dc          	call   QWORD PTR [r12+rbx*8]
  40088d:	48 83 c3 01          	add    rbx,0x1
  400891:	48 39 dd             	cmp    rbp,rbx
  400894:	75 ea                	jne    400880 <setvbuf@plt+0x290>
  400896:	48 83 c4 08          	add    rsp,0x8
  40089a:	5b                   	pop    rbx
  40089b:	5d                   	pop    rbp
  40089c:	41 5c                	pop    r12
  40089e:	41 5d                	pop    r13
  4008a0:	41 5e                	pop    r14
  4008a2:	41 5f                	pop    r15
  4008a4:	c3                   	ret    
  4008a5:	90                   	nop
  4008a6:	66 2e 0f 1f 84 00 00 	nop    WORD PTR cs:[rax+rax*1+0x0]
  4008ad:	00 00 00 
  4008b0:	f3 c3                	repz ret 

セクション .fini の逆アセンブル:

00000000004008b4 <.fini>:
  4008b4:	48 83 ec 08          	sub    rsp,0x8
  4008b8:	48 83 c4 08          	add    rsp,0x8
  4008bc:	c3                   	ret    
